target datalayout = "e-m:e-p270:32:32-p271:32:32-p272:64:64-i64:64-i128:128-f80:128-n8:16:32:64-S128"
target triple = "x86_64-pc-linux-gnu"

%struct.darktable_t = type { %struct.dt_codepath_t, i32, i32, ptr, ptr, ptr, ptr, ptr, ptr, ptr, ptr, ptr, ptr, ptr, ptr, ptr, ptr, ptr, ptr, ptr, ptr, ptr, ptr, ptr, ptr, ptr, ptr, ptr, ptr, ptr, [64 x %struct.dt_pthread_mutex_t], %struct.dt_pthread_mutex_t, %struct.dt_pthread_mutex_t, %struct.dt_pthread_mutex_t, %struct.dt_pthread_mutex_t, %struct.dt_pthread_mutex_t, ptr, ptr, ptr, ptr, ptr, ptr, ptr, ptr, ptr, ptr, ptr, ptr, ptr, %struct.dt_lua_state_t, ptr, double, ptr, i32, [47 x i32], i32, i32, ptr, ptr, %struct.dt_sys_resources_t, %struct.dt_backthumb_t, %struct.dt_gimp_t }
%struct.dt_codepath_t = type { i8, [3 x i8] }
%struct.dt_pthread_mutex_t = type { %union.pthread_mutex_t }
%union.pthread_mutex_t = type { %struct.__pthread_mutex_s }
%struct.__pthread_mutex_s = type { i32, i32, i32, i32, i32, i16, i16, %struct.__pthread_internal_list }
%struct.__pthread_internal_list = type { ptr, ptr }
%struct.dt_lua_state_t = type { i32 }
%struct.dt_sys_resources_t = type { i64, i64, ptr, ptr, i32 }
%struct.dt_backthumb_t = type { double, double, i32, i32, i32, i32 }
%struct.dt_gimp_t = type { i32, ptr, ptr, i32, i32 }
%struct.dt_conf_t = type { %struct.dt_pthread_mutex_t, [4096 x i8], ptr, ptr, ptr }

@darktable = external global %struct.darktable_t, align 8
@.str.90 = private unnamed_addr constant [26 x i8] c"reset panels in all views\00", align 1
@.str.91 = private unnamed_addr constant [95 x i8] c"are you sure?\0A\0Ayou will not be able to restore your current panel layout and module selection.\00", align 1

; Function Attrs: nounwind uwtable
define internal void @_reset_panels_clicked(ptr noundef %0, ptr noundef %1) #0 {
  %3 = alloca ptr, align 8
  %4 = alloca ptr, align 8
  store ptr %0, ptr %3, align 8, !tbaa !125
  store ptr %1, ptr %4, align 8, !tbaa !61
  %5 = call ptr @dcgettext(ptr noundef null, ptr noundef @.str.90, i32 noundef 5) #10
  %6 = call ptr @dcgettext(ptr noundef null, ptr noundef @.str.91, i32 noundef 5) #10
  %7 = call i32 (ptr, ptr, ...) @dt_gui_show_yes_no_dialog(ptr noundef %5, ptr noundef %6)
  %8 = icmp ne i32 %7, 0
  br i1 %8, label %10, label %9

9:                                                ; preds = %2
  br label %19

10:                                               ; preds = %2
  %11 = load ptr, ptr getelementptr inbounds nuw (%struct.darktable_t, ptr @darktable, i32 0, i32 8), align 8, !tbaa !127
  %12 = getelementptr inbounds nuw %struct.dt_conf_t, ptr %11, i32 0, i32 2
  %13 = load ptr, ptr %12, align 8, !tbaa !128
  %14 = call i32 @g_hash_table_foreach_remove(ptr noundef %13, ptr noundef @_remove_panel_config, ptr noundef null)
  %15 = load ptr, ptr getelementptr inbounds nuw (%struct.darktable_t, ptr @darktable, i32 0, i32 11), align 8, !tbaa !80
  %16 = load ptr, ptr getelementptr inbounds nuw (%struct.darktable_t, ptr @darktable, i32 0, i32 11), align 8, !tbaa !80
  %17 = call ptr @dt_view_manager_get_current_view(ptr noundef %16)
  %18 = call i32 @dt_view_manager_switch_by_view(ptr noundef %15, ptr noundef %17)
  br label %19

19:                                               ; preds = %10, %9
  ret void
}