; Function Attrs: nounwind uwtable
define internal void @_reset_panels_clicked(ptr readnone captures(none) %0, ptr readnone captures(none) %1) #0 {
  %3 = tail call ptr @dcgettext(ptr noundef null, ptr noundef nonnull @.str.90, i32 noundef 5) #12
  %4 = tail call ptr @dcgettext(ptr noundef null, ptr noundef nonnull @.str.91, i32 noundef 5) #12
  %5 = tail call i32 (ptr, ptr, ...) @dt_gui_show_yes_no_dialog(ptr noundef %3, ptr noundef %4) #12
  %.not = icmp eq i32 %5, 0
  br i1 %.not, label %14, label %6

6:                                                ; preds = %2
  %7 = load ptr, ptr getelementptr inbounds nuw (i8, ptr @darktable, i64 56), align 8, !tbaa !91
  %8 = getelementptr inbounds nuw i8, ptr %7, i64 4136
  %9 = load ptr, ptr %8, align 8, !tbaa !92
  %10 = tail call i32 @g_hash_table_foreach_remove(ptr noundef %9, ptr noundef nonnull @_remove_panel_config, ptr noundef null) #12
  %11 = load ptr, ptr getelementptr inbounds nuw (i8, ptr @darktable, i64 80), align 8, !tbaa !76
  %12 = tail call ptr @dt_view_manager_get_current_view(ptr noundef %11) #12
  %13 = tail call i32 @dt_view_manager_switch_by_view(ptr noundef %11, ptr noundef %12) #12
  br label %14

14:                                               ; preds = %2, %6
  ret void
}